; Function Attrs: mustprogress nofree norecurse nosync nounwind willreturn memory(read, inaccessiblemem: none) uwtable
define noundef zeroext i1 @_ZNK16FilterDockDialog13isPreviewableEv(ptr nocapture noundef nonnull readonly align 8 dereferenceable(1048) %0) local_unnamed_addr #13 align 2 {
  %2 = getelementptr inbounds i8, ptr %0, i64 48
  %3 = load ptr, ptr %2, align 8
  %4 = getelementptr inbounds i8, ptr %3, i64 104
  %5 = load ptr, ptr %4, align 8
  %6 = getelementptr inbounds i8, ptr %5, i64 40
  %7 = load ptr, ptr %6, align 8
  %8 = getelementptr inbounds i8, ptr %7, i64 8
  %9 = load i32, ptr %8, align 8
  %10 = and i32 %9, 32768
  %11 = icmp ne i32 %10, 0
  ret i1 %11
}